******************************************************************************
               TMS320C6x Linker PC v7.3.1                      
******************************************************************************
>> Linked Wed May 17 16:12:11 2017

OUTPUT FILE NAME:   <ccsProject.out>
ENTRY POINT SYMBOL: "_c_int00"  address: 8000aa60


MEMORY CONFIGURATION

         name            origin    length      used     unused   attr    fill
----------------------  --------  ---------  --------  --------  ----  --------
  DSPL2ROM              00700000   00010000  00000000  00010000  RWIX
  DSPL2RAM              00800000   00040000  00000000  00040000  RWIX
  DSPL1PRAM             00e00000   00008000  00000000  00008000  RWIX
  DSPL1DRAM             00f00000   00008000  00000000  00008000  RWIX
  SHDSPL2ROM            11700000   00010000  00000000  00010000  RWIX
  SHDSPL2RAM            11800000   00040000  00000000  00040000  RWIX
  SHDSPL1PRAM           11e00000   00008000  00000000  00008000  RWIX
  SHDSPL1DRAM           11f00000   00008000  00000000  00008000  RWIX
  EMIFACS0              40000000   20000000  00000000  20000000  RWIX
  EMIFACS2              60000000   02000000  00000000  02000000  RWIX
  EMIFACS3              62000000   02000000  00000000  02000000  RWIX
  EMIFACS4              64000000   02000000  00000000  02000000  RWIX
  EMIFACS5              66000000   02000000  00000000  02000000  RWIX
  SHRAM                 80000000   00020000  0001489c  0000b764  RWIX
  DDR2                  c0000000   20000000  00000000  20000000  RWIX


SECTION ALLOCATION MAP

 output                                  attributes/
section   page    origin      length       input sections
--------  ----  ----------  ----------   ----------------
.pinit     0    80000000    00000000     UNINITIALIZED

.text      0    80000000    0000b1a0     
                  80000000    00001040     aes.obj (.text)
                  80001040    000009c0     modFunctions32.obj (.text)
                  80001a00    000008e0     montExponentiation32.obj (.text)
                  800022e0    00000640     sha2.obj (.text)
                  80002920    00000620     modularInverse32.obj (.text)
                  80002f40    000005a0     rts6740.lib : divd.obj (.text:__divd)
                  800034e0    000005a0     helpfulFunctions.obj (.text)
                  80003a80    00000580     rts6740.lib : _printfi.obj (.text:__getarg_diouxp)
                  80004000    00000540     additionalFunctions32.obj (.text)
                  80004540    000004a0     keyEstablishmentFunctions32.obj (.text)
                  800049e0    00000480     rts6740.lib : _printfi.obj (.text:__setfield)
                  80004e60    00000480     signatureMessage.obj (.text)
                  800052e0    00000440     rts6740.lib : _printfi.obj (.text:__printfi)
                  80005720    000003a0     verifySignature.obj (.text)
                  80005ac0    00000380     PRNG.obj (.text)
                  80005e40    00000300     rts6740.lib : fputs.obj (.text:_fputs)
                  80006140    00000300     main.obj (.text)
                  80006440    000002c0     rts6740.lib : _printfi.obj (.text:__pproc_fge)
                  80006700    000002c0                 : _printfi.obj (.text:__pproc_fwp)
                  800069c0    000002c0     useAES.obj (.text)
                  80006c80    000002a0     rts6740.lib : _printfi.obj (.text:_ecvt)
                  80006f20    000002a0                 : _printfi.obj (.text:_fcvt)
                  800071c0    00000280                 : memory.obj (.text:_free)
                  80007440    00000260                 : imath64.obj (.text:__divull)
                  800076a0    00000260                 : _printfi.obj (.text:__pconv_e)
                  80007900    00000240                 : _printfi.obj (.text:__pproc_diouxp)
                  80007b40    00000220                 : _printfi.obj (.text:__pproc_str)
                  80007d60    00000200                 : _printfi.obj (.text:__pconv_g)
                  80007f60    000001c0                 : _printfi.obj (.text:__mcpy)
                  80008120    000001a0                 : imath40.obj (.text:__divul)
                  800082c0    00000180                 : trgdrv.obj (.text:_HOSTrename)
                  80008440    00000180                 : memory.obj (.text:_malloc)
                  800085c0    00000180                 : setvbuf.obj (.text:_setvbuf)
                  80008740    00000160     useSHA256.obj (.text)
                  800088a0    00000140     rts6740.lib : _printfi.obj (.text:__pproc_fflags)
                  800089e0    00000140                 : fputc.obj (.text:_fputc)
                  80008b20    00000140                 : lowlev.obj (.text:_getdevice)
                  80008c60    00000120                 : fclose.obj (.text:_fclose)
                  80008d80    00000120     maskGenerationFunction.obj (.text)
                  80008ea0    00000100     rts6740.lib : trgdrv.obj (.text:_HOSTlseek)
                  80008fa0    00000100                 : autoinit.obj (.text:__auto_init)
                  800090a0    00000100                 : _printfi.obj (.text:__ltostr)
                  800091a0    00000100                 : _io_perm.obj (.text:__wrt_ok)
                  800092a0    00000100                 : fflush.obj (.text:_fflush)
                  800093a0    000000e0                 : trgdrv.obj (.text:_HOSTopen)
                  80009480    000000e0                 : divi.obj (.text:__divi)
                  80009560    000000e0                 : atoi.obj (.text:_atoi)
                  80009640    000000e0                 : lowlev.obj (.text:_close)
                  80009720    000000e0                 : exit.obj (.text:_exit)
                  80009800    000000e0                 : memset.obj (.text:_memset)
                  800098e0    000000c0                 : trgdrv.obj (.text:_HOSTread)
                  800099a0    000000c0                 : trgdrv.obj (.text:_HOSTunlink)
                  80009a60    000000c0                 : trgdrv.obj (.text:_HOSTwrite)
                  80009b20    000000c0                 : fopen.obj (.text:__cleanup)
                  80009be0    000000c0                 : _printfi.obj (.text:__div)
                  80009ca0    000000c0                 : divu.obj (.text:__divu)
                  80009d60    000000c0                 : fflush.obj (.text:__doflush)
                  80009e20    000000c0                 : remi.obj (.text:__remi)
                  80009ee0    000000c0                 : fseek.obj (.text:_fseek)
                  80009fa0    000000c0                 : lowlev.obj (.text:_lseek)
                  8000a060    000000c0                 : ltoa.obj (.text:_ltoa)
                  8000a120    000000c0                 : lowlev.obj (.text:_write)
                  8000a1e0    000000a0                 : trgdrv.obj (.text:_HOSTclose)
                  8000a280    000000a0                 : trgdrv.obj (.text:_HOSTtime)
                  8000a320    000000a0                 : imath40.obj (.text:__divli)
                  8000a3c0    000000a0                 : _printfi.obj (.text:__ecpy)
                  8000a460    000000a0                 : _printfi.obj (.text:__fcpy)
                  8000a500    000000a0                 : fixdli.obj (.text:__fixdli)
                  8000a5a0    000000a0                 : _printfi.obj (.text:__pconv_f)
                  8000a640    000000a0                 : cpy_tbl.obj (.text:_copy_in)
                  8000a6e0    000000a0                 : lowlev.obj (.text:_finddevice)
                  8000a780    000000a0                 : memcpy64.obj (.text:_memcpy)
                  8000a820    000000a0                 : memory.obj (.text:_minsert)
                  8000a8c0    000000a0                 : memory.obj (.text:_mremove)
                  8000a960    00000080                 : fltlid.obj (.text:__fltlid)
                  8000a9e0    00000080                 : llshift.obj (.text:__llshl)
                  8000aa60    00000080                 : boot.obj (.text:_c_int00)
                  8000aae0    00000080                 : fprintf.obj (.text:_fprintf)
                  8000ab60    00000080                 : printf.obj (.text:_printf)
                  8000abe0    00000080                 : trgmsg.obj (.text:_readmsg)
                  8000ac60    00000080                 : lowlev.obj (.text:_unlink)
                  8000ace0    00000060                 : assert.obj (.text:__abort_msg)
                  8000ad40    00000060                 : imath64.obj (.text:__subcull)
                  8000ada0    00000060                 : memccpy.obj (.text:_memccpy)
                  8000ae00    00000060                 : trgmsg.obj (.text:_writemsg)
                  8000ae60    00000040                 : isinf.obj (.text:___isinf)
                  8000aea0    00000040                 : _printfi.obj (.text:___isnan)
                  8000aee0    00000040                 : args_main.obj (.text:__args_main)
                  8000af20    00000040                 : frcmpyd_div.obj (.text:__frcmpyd_div)
                  8000af60    00000040                 : llshift.obj (.text:__llshru)
                  8000afa0    00000040                 : imath40.obj (.text:__remli)
                  8000afe0    00000040                 : strasg.obj (.text:__strasgi_64plus)
                  8000b020    00000040                 : time.obj (.text:_time)
                  8000b060    00000020                 : negll.obj (.text:__negll)
                  8000b080    00000020                 : _lock.obj (.text:__nop)
                  8000b0a0    00000020                 : fprintf.obj (.text:__outc)
                  8000b0c0    00000020                 : printf.obj (.text:__outc)
                  8000b0e0    00000020                 : fprintf.obj (.text:__outs)
                  8000b100    00000020                 : printf.obj (.text:__outs)
                  8000b120    00000020                 : push.obj (.text:__pop_rts)
                  8000b140    00000020                 : push.obj (.text:__push_rts)
                  8000b160    00000020                 : exit.obj (.text:_abort)
                  8000b180    00000020                 : remove.obj (.text:_remove)

.bss       0    80000000    00000000     UNINITIALIZED

.data      0    80000000    00000000     UNINITIALIZED

.sysmem    0    8000b1a0    00004000     UNINITIALIZED
                  8000b1a0    00000008     rts6740.lib : memory.obj (.sysmem)
                  8000b1a8    00003ff8     --HOLE--

.const     0    8000f1a0    00002f24     
                  8000f1a0    00000400     aes.obj (.const:_Td0)
                  8000f5a0    00000400     aes.obj (.const:_Td1)
                  8000f9a0    00000400     aes.obj (.const:_Td2)
                  8000fda0    00000400     aes.obj (.const:_Td3)
                  800101a0    00000400     aes.obj (.const:_Td4)
                  800105a0    00000400     aes.obj (.const:_Te0)
                  800109a0    00000400     aes.obj (.const:_Te1)
                  80010da0    00000400     aes.obj (.const:_Te2)
                  800111a0    00000400     aes.obj (.const:_Te3)
                  800115a0    00000400     aes.obj (.const:_Te4)
                  800119a0    00000108     main.obj (.const)
                  80011aa8    00000101     rts6740.lib : ctype.obj (.const:__ctypes_)
                  80011ba9    00000003                 : assert.obj (.const)
                  80011bac    00000002                 : fputs.obj (.const)
                  80011bae    00000002     --HOLE-- [fill = 0]
                  80011bb0    00000100     sha2.obj (.const:_K256)
                  80011cb0    00000080     main.obj (.const:_$P$T2$3)
                  80011d30    00000080     main.obj (.const:_$P$T3$4)
                  80011db0    00000080     main.obj (.const:_$P$T4$5)
                  80011e30    00000080     main.obj (.const:_$P$T5$6)
                  80011eb0    0000006c     sha2.obj (.const)
                  80011f1c    00000044     helpfulFunctions.obj (.const)
                  80011f60    00000040     PRNG.obj (.const:_$P$T0$2)
                  80011fa0    0000003c     main.obj (.const:_$P$T1$2)
                  80011fdc    0000003c     additionalFunctions32.obj (.const)
                  80012018    00000038     main.obj (.const:_$P$T0$1)
                  80012050    00000028     aes.obj (.const:_rcon)
                  80012078    00000023     rts6740.lib : _printfi.obj (.const)
                  8001209b    00000005     --HOLE-- [fill = 0]
                  800120a0    00000020     sha2.obj (.const:_sha256_initial_hash_value)
                  800120c0    00000004     main.obj (.const:_$P$T6$7)

.stack     0    800120c8    00002000     UNINITIALIZED
                  800120c8    00000008     rts6740.lib : boot.obj (.stack)
                  800120d0    00001ff8     --HOLE--

.far       0    800140c8    00000554     UNINITIALIZED
                  800140c8    00000324     rts6740.lib : defs.obj (.far)
                  800143ec    00000004                 : fopen.obj (.far)
                  800143f0    0000011c                 : lowlev.obj (.far)
                  8001450c    00000004     --HOLE--
                  80014510    000000d0                 : trgdrv.obj (.far)
                  800145e0    00000020     PRNG.obj (.far)
                  80014600    0000000c     rts6740.lib : exit.obj (.far)
                  8001460c    00000008                 : _lock.obj (.far)
                  80014614    00000008                 : memory.obj (.far)

.cinit     0    80014620    00000164     
                  80014620    0000005c     rts6740.lib : defs.obj (.cinit)
                  8001467c    00000004     --HOLE-- [fill = 0]
                  80014680    0000005c                 : lowlev.obj (.cinit)
                  800146dc    00000004     --HOLE-- [fill = 0]
                  800146e0    0000002c                 : exit.obj (.cinit)
                  8001470c    00000004     --HOLE-- [fill = 0]
                  80014710    0000002c                 : memory.obj (.cinit)
                  8001473c    00000004     --HOLE-- [fill = 0]
                  80014740    0000001c                 : _lock.obj (.cinit)
                  8001475c    00000004     --HOLE-- [fill = 0]
                  80014760    0000000c                 : fopen.obj (.cinit)
                  8001476c    00000004     --HOLE-- [fill = 0]
                  80014770    00000009     PRNG.obj (.cinit)
                  80014779    00000007     --HOLE-- [fill = 0]
                  80014780    00000004     (.pad.cinit) [fill = 0]

.cio       0    80014784    00000120     UNINITIALIZED
                  80014784    00000120     rts6740.lib : trgmsg.obj (.cio)


GLOBAL SYMBOLS: SORTED ALPHABETICALLY BY Name 

address    name
--------   ----
80000000   $bss
80000000   .bss
80000000   .data
80000000   .text
8000b160   C$$EXIT
8000ae58   C$$IO$$
80001c88   _ADD
8000a1e0   _HOSTclose
80008ea0   _HOSTlseek
800093a0   _HOSTopen
800098e0   _HOSTread
800082c0   _HOSTrename
8000a280   _HOSTtime
800099a0   _HOSTunlink
80009a60   _HOSTwrite
80005d90   _PRNG
80005b10   _RNG
80002754   _SHA256_Final
800026f4   _SHA256_Init
800022e0   _SHA256_Transform
8000258c   _SHA256_Update
80001ce4   _SUB_COND
80003a48   _XOR
80014784   __CIOBUF_
800140c8   __STACK_END
00002000   __STACK_SIZE
00004000   __SYSMEM_SIZE
00000001   __TI_args_main
80014608   ___TI_enable_exit_profile_output
ffffffff   ___TI_pprof_out_hndl
ffffffff   ___TI_prof_data_size
ffffffff   ___TI_prof_data_start
ffffffff   ___binit__
80000000   ___bss__
ffffffff   ___c_args__
80014620   ___cinit__
80000000   ___data__
80000000   ___edata__
80000000   ___end__
8000b1a0   ___etext__
8000ae60   ___isinf
ffffffff   ___pinit__
80000000   ___text__
8000ace0   __abort_msg
8000aee0   __args_main
80008fa0   __auto_init
80009480   __c6xabi_divi
80009ca0   __c6xabi_divu
8000b120   __c6xabi_pop_rts
8000b140   __c6xabi_push_rts
80009e20   __c6xabi_remi
8000afe0   __c6xabi_strasgi_64plus
80009b20   __cleanup
80014600   __cleanup_ptr
80011aa8   __ctypes_
80002f40   __divd
80009480   __divi
8000a320   __divli
80009ca0   __divu
80008120   __divul
80007440   __divull
80009d60   __doflush
80014604   __dtors_ptr
8000a500   __fixdli
8000a960   __fltlid
8000af20   __frcmpyd_div
800143e8   __ft_end
800140c8   __ftable
8000a9e0   __llshl
8000af60   __llshru
8001460c   __lock
8000b060   __negll
8000b080   __nop
8000b120   __pop_rts
800052e0   __printfi
8000b140   __push_rts
80009e20   __remi
8000afa0   __remli
800120c8   __stack
8000afe0   __strasgi_64plus
8000ad40   __subcull
8000b1a0   __sys_memory
800142a8   __tmpnams
80014610   __unlock
800091a0   __wrt_ok
8000b160   _abort
800044c8   _addition
80006be8   _aesCBCdecrypt
80006b40   _aesCBCencrypt
80006a38   _aesDecrypt
800069c0   _aesEncrypt
80000bd8   _aes_decrypt
80000754   _aes_encrypt
80000488   _aes_set_decrypt_key
80000000   _aes_set_encrypt_key
80009560   _atoi
8000aa60   _c_int00
8000492c   _calculateKey
80009640   _close
80005ca0   _compareFSR
80004904   _computePartOfKey
800039f0   _concat
800039cc   _copyArray
800044a0   _copyArray32
80004484   _copyArray8
800039ac   _copyArrayFrom0
8000a640   _copy_in
80004878   _createExponent
8000480c   _createMessage
80004764   _decryptAndUnsignMessage
8000444c   _divideByTwo
80009720   _exit
80008c60   _fclose
800092a0   _fflush
80005c48   _findRandNum
800043e4   _flipArray
8000aae0   _fprintf
800089e0   _fputc
80005e40   _fputs
800071c0   _free
80004734   _from16to8
800010d8   _from2to32
80004588   _from32to8
8000470c   _from8to16
80004540   _from8to32
80009ee0   _fseek
800087e0   _hashOfLength
8000878c   _hashWithTime
800038a0   _hexToString
80004370   _isBiggerThan
80004034   _isBiggerThanOrEqual
80009fa0   _lseek
8000a060   _ltoa
80006140   _main
80008440   _malloc
80008d80   _maskGenerationFunction
8000ada0   _memccpy
8000a780   _memcpy
80009800   _memset
80001630   _mod
80001758   _modFaster
80001960   _modMult
800018c0   _modSquare
80002990   _modularInverse
80001dcc   _mont
80001fa4   _montExp
80001a00   _montMultiplication
80001408   _multiplication
80004330   _multiplyByTwo
800042e0   _numberIsZero
80006ab8   _padding
80001040   _positionMSB
800037cc   _printArray
8000424c   _printArray32
800041c0   _printArray8
8000374c   _printArrayNoSpaces
800036cc   _printArrayNoSpaces32
800035f8   _printChar
80003578   _printCharNoSpaces
8000ab60   _printf
800089e0   _putc
8000abe0   _readmsg
8000b180   _remove
80004660   _repositionZeros
800034f4   _seeTheDifference
800085c0   _setvbuf
800045d0   _signAndEncryptMessage
80004e60   _signatureMessage
80002920   _signedSubtraction
80006a78   _simpleDecrypt
800069f8   _simpleEncrypt
80008740   _simpleHashWithLength
800011c8   _squareProduct
80004168   _subtraction
800040b4   _subtractionWithSign
8000b020   _time
800034e0   _timeData
8000ac60   _unlink
80005ac0   _updateFSR
80005720   _verifySignature
8000a120   _write
8000ae00   _writemsg
80004018   _zerosArray
80004000   _zerosArray16
ffffffff   binit
80014620   cinit
80000000   edata
80000000   end
8000b1a0   etext
ffffffff   pinit


GLOBAL SYMBOLS: SORTED BY Symbol Address 

address    name
--------   ----
00000001   __TI_args_main
00002000   __STACK_SIZE
00004000   __SYSMEM_SIZE
80000000   $bss
80000000   .bss
80000000   .data
80000000   .text
80000000   ___bss__
80000000   ___data__
80000000   ___edata__
80000000   ___end__
80000000   ___text__
80000000   _aes_set_encrypt_key
80000000   edata
80000000   end
80000488   _aes_set_decrypt_key
80000754   _aes_encrypt
80000bd8   _aes_decrypt
80001040   _positionMSB
800010d8   _from2to32
800011c8   _squareProduct
80001408   _multiplication
80001630   _mod
80001758   _modFaster
800018c0   _modSquare
80001960   _modMult
80001a00   _montMultiplication
80001c88   _ADD
80001ce4   _SUB_COND
80001dcc   _mont
80001fa4   _montExp
800022e0   _SHA256_Transform
8000258c   _SHA256_Update
800026f4   _SHA256_Init
80002754   _SHA256_Final
80002920   _signedSubtraction
80002990   _modularInverse
80002f40   __divd
800034e0   _timeData
800034f4   _seeTheDifference
80003578   _printCharNoSpaces
800035f8   _printChar
800036cc   _printArrayNoSpaces32
8000374c   _printArrayNoSpaces
800037cc   _printArray
800038a0   _hexToString
800039ac   _copyArrayFrom0
800039cc   _copyArray
800039f0   _concat
80003a48   _XOR
80004000   _zerosArray16
80004018   _zerosArray
80004034   _isBiggerThanOrEqual
800040b4   _subtractionWithSign
80004168   _subtraction
800041c0   _printArray8
8000424c   _printArray32
800042e0   _numberIsZero
80004330   _multiplyByTwo
80004370   _isBiggerThan
800043e4   _flipArray
8000444c   _divideByTwo
80004484   _copyArray8
800044a0   _copyArray32
800044c8   _addition
80004540   _from8to32
80004588   _from32to8
800045d0   _signAndEncryptMessage
80004660   _repositionZeros
8000470c   _from8to16
80004734   _from16to8
80004764   _decryptAndUnsignMessage
8000480c   _createMessage
80004878   _createExponent
80004904   _computePartOfKey
8000492c   _calculateKey
80004e60   _signatureMessage
800052e0   __printfi
80005720   _verifySignature
80005ac0   _updateFSR
80005b10   _RNG
80005c48   _findRandNum
80005ca0   _compareFSR
80005d90   _PRNG
80005e40   _fputs
80006140   _main
800069c0   _aesEncrypt
800069f8   _simpleEncrypt
80006a38   _aesDecrypt
80006a78   _simpleDecrypt
80006ab8   _padding
80006b40   _aesCBCencrypt
80006be8   _aesCBCdecrypt
800071c0   _free
80007440   __divull
80008120   __divul
800082c0   _HOSTrename
80008440   _malloc
800085c0   _setvbuf
80008740   _simpleHashWithLength
8000878c   _hashWithTime
800087e0   _hashOfLength
800089e0   _fputc
800089e0   _putc
80008c60   _fclose
80008d80   _maskGenerationFunction
80008ea0   _HOSTlseek
80008fa0   __auto_init
800091a0   __wrt_ok
800092a0   _fflush
800093a0   _HOSTopen
80009480   __c6xabi_divi
80009480   __divi
80009560   _atoi
80009640   _close
80009720   _exit
80009800   _memset
800098e0   _HOSTread
800099a0   _HOSTunlink
80009a60   _HOSTwrite
80009b20   __cleanup
80009ca0   __c6xabi_divu
80009ca0   __divu
80009d60   __doflush
80009e20   __c6xabi_remi
80009e20   __remi
80009ee0   _fseek
80009fa0   _lseek
8000a060   _ltoa
8000a120   _write
8000a1e0   _HOSTclose
8000a280   _HOSTtime
8000a320   __divli
8000a500   __fixdli
8000a640   _copy_in
8000a780   _memcpy
8000a960   __fltlid
8000a9e0   __llshl
8000aa60   _c_int00
8000aae0   _fprintf
8000ab60   _printf
8000abe0   _readmsg
8000ac60   _unlink
8000ace0   __abort_msg
8000ad40   __subcull
8000ada0   _memccpy
8000ae00   _writemsg
8000ae58   C$$IO$$
8000ae60   ___isinf
8000aee0   __args_main
8000af20   __frcmpyd_div
8000af60   __llshru
8000afa0   __remli
8000afe0   __c6xabi_strasgi_64plus
8000afe0   __strasgi_64plus
8000b020   _time
8000b060   __negll
8000b080   __nop
8000b120   __c6xabi_pop_rts
8000b120   __pop_rts
8000b140   __c6xabi_push_rts
8000b140   __push_rts
8000b160   C$$EXIT
8000b160   _abort
8000b180   _remove
8000b1a0   ___etext__
8000b1a0   __sys_memory
8000b1a0   etext
80011aa8   __ctypes_
800120c8   __stack
800140c8   __STACK_END
800140c8   __ftable
800142a8   __tmpnams
800143e8   __ft_end
80014600   __cleanup_ptr
80014604   __dtors_ptr
80014608   ___TI_enable_exit_profile_output
8001460c   __lock
80014610   __unlock
80014620   ___cinit__
80014620   cinit
80014784   __CIOBUF_
ffffffff   ___TI_pprof_out_hndl
ffffffff   ___TI_prof_data_size
ffffffff   ___TI_prof_data_start
ffffffff   ___binit__
ffffffff   ___c_args__
ffffffff   ___pinit__
ffffffff   binit
ffffffff   pinit

[190 symbols]
